	.cpu cortex-m4
	.eabi_attribute 27, 1
	.eabi_attribute 28, 1
	.eabi_attribute 20, 1
	.eabi_attribute 21, 1
	.eabi_attribute 23, 3
	.eabi_attribute 24, 1
	.eabi_attribute 25, 1
	.eabi_attribute 26, 1
	.eabi_attribute 30, 4
	.eabi_attribute 34, 1
	.eabi_attribute 18, 4
	.file	"atca_command.c"
	.text
.Ltext0:
	.section	.text.initATCACommand,"ax",%progbits
	.align	1
	.global	initATCACommand
	.syntax unified
	.thumb
	.thumb_func
	.fpu fpv4-sp-d16
	.type	initATCACommand, %function
initATCACommand:
.LFB24:
	.file 1 "C:\\localrep\\ATEC608A_test\\nRF5_SDK_15.3.0_59ac345\\examples\\iot\\misc\\iot_timer\\cryptoauthlib\\lib\\atca_command.c"
	.loc 1 557 0
	@ args = 0, pretend = 0, frame = 0
	@ frame_needed = 0, uses_anonymous_args = 0
	@ link register save eliminated.
.LVL0:
	.loc 1 558 0
	cbz	r1, .L3
	.loc 1 563 0
	strb	r0, [r1]
	.loc 1 564 0
	movs	r0, #0
.LVL1:
	strb	r0, [r1, #1]
	.loc 1 566 0
	bx	lr
.LVL2:
.L3:
	.loc 1 560 0
	movs	r0, #226
.LVL3:
	.loc 1 567 0
	bx	lr
.LFE24:
	.size	initATCACommand, .-initATCACommand
	.section	.text.newATCACommand,"ax",%progbits
	.align	1
	.global	newATCACommand
	.syntax unified
	.thumb
	.thumb_func
	.fpu fpv4-sp-d16
	.type	newATCACommand, %function
newATCACommand:
.LFB25:
	.loc 1 576 0
	@ args = 0, pretend = 0, frame = 0
	@ frame_needed = 0, uses_anonymous_args = 0
.LVL4:
	push	{r3, r4, r5, lr}
.LCFI0:
	.loc 1 576 0
	mov	r5, r0
	.loc 1 580 0
	movs	r0, #4
.LVL5:
	bl	malloc
.LVL6:
.LBB4:
.LBB5:
	.loc 1 558 0
	mov	r4, r0
	cbnz	r0, .L5
.LVL7:
.LBE5:
.LBE4:
	.loc 1 584 0
	bl	free
.LVL8:
.L4:
	.loc 1 590 0
	mov	r0, r4
	pop	{r3, r4, r5, pc}
.LVL9:
.L5:
.LBB7:
.LBB6:
	.loc 1 564 0
	movs	r3, #0
	.loc 1 563 0
	strb	r5, [r0]
	.loc 1 564 0
	strb	r3, [r0, #1]
.LVL10:
	b	.L4
.LBE6:
.LBE7:
.LFE25:
	.size	newATCACommand, .-newATCACommand
	.section	.text.deleteATCACommand,"ax",%progbits
	.align	1
	.global	deleteATCACommand
	.syntax unified
	.thumb
	.thumb_func
	.fpu fpv4-sp-d16
	.type	deleteATCACommand, %function
deleteATCACommand:
.LFB26:
	.loc 1 598 0
	@ args = 0, pretend = 0, frame = 0
	@ frame_needed = 0, uses_anonymous_args = 0
.LVL11:
	push	{r4, lr}
.LCFI1:
	.loc 1 599 0
	mov	r4, r0
	cbz	r0, .L7
	.loc 1 604 0
	ldr	r0, [r0]
.LVL12:
	bl	free
.LVL13:
	.loc 1 605 0
	movs	r3, #0
	str	r3, [r4]
.L7:
	.loc 1 606 0
	pop	{r4, pc}
.LFE26:
	.size	deleteATCACommand, .-deleteATCACommand
	.section	.text.atCRC,"ax",%progbits
	.align	1
	.global	atCRC
	.syntax unified
	.thumb
	.thumb_func
	.fpu fpv4-sp-d16
	.type	atCRC, %function
atCRC:
.LFB27:
	.loc 1 618 0
	@ args = 0, pretend = 0, frame = 0
	@ frame_needed = 0, uses_anonymous_args = 0
.LVL14:
	push	{r4, r5, r6, r7, lr}
.LCFI2:
	add	r0, r0, r1
.LVL15:
	.loc 1 620 0
	movs	r3, #0
	.loc 1 634 0
	movw	r6, #32773
.LVL16:
.L13:
	.loc 1 625 0 discriminator 1
	cmp	r0, r1
	bne	.L16
	.loc 1 638 0
	strb	r3, [r2]
	.loc 1 639 0
	lsrs	r3, r3, #8
.LVL17:
	strb	r3, [r2, #1]
	.loc 1 640 0
	pop	{r4, r5, r6, r7, pc}
.LVL18:
.L16:
	.loc 1 629 0
	ldrb	r7, [r1], #1	@ zero_extendqisi2
.LVL19:
	movs	r5, #8
	.loc 1 627 0
	movs	r4, #1
.L15:
.LVL20:
	.loc 1 629 0
	tst	r7, r4
	.loc 1 630 0
	lsr	ip, r3, #15
.LVL21:
	.loc 1 632 0
	it	ne
	movne	lr, #1
	.loc 1 631 0
	lsl	r3, r3, #1
.LVL22:
	.loc 1 632 0
	it	eq
	moveq	lr, #0
	cmp	lr, ip
	.loc 1 631 0
	uxth	r3, r3
.LVL23:
	.loc 1 634 0
	it	ne
	eorne	r3, r3, r6
.LVL24:
	.loc 1 627 0
	lsls	r4, r4, #1
.LVL25:
	subs	r5, r5, #1
	uxtb	r4, r4
.LVL26:
	bne	.L15
	b	.L13
.LFE27:
	.size	atCRC, .-atCRC
	.section	.text.atCalcCrc,"ax",%progbits
	.align	1
	.global	atCalcCrc
	.syntax unified
	.thumb
	.thumb_func
	.fpu fpv4-sp-d16
	.type	atCalcCrc, %function
atCalcCrc:
.LFB28:
	.loc 1 648 0
	@ args = 0, pretend = 0, frame = 0
	@ frame_needed = 0, uses_anonymous_args = 0
	@ link register save eliminated.
.LVL27:
	.loc 1 653 0
	adds	r1, r0, #1
.LVL28:
	.loc 1 651 0
	ldrb	r0, [r0, #1]	@ zero_extendqisi2
.LVL29:
	subs	r0, r0, #2
	.loc 1 653 0
	uxtb	r0, r0
.LVL30:
	.loc 1 656 0
	adds	r2, r1, r0
.LVL31:
	b	atCRC
.LVL32:
.LFE28:
	.size	atCalcCrc, .-atCalcCrc
	.section	.text.atCheckMAC,"ax",%progbits
	.align	1
	.global	atCheckMAC
	.syntax unified
	.thumb
	.thumb_func
	.fpu fpv4-sp-d16
	.type	atCheckMAC, %function
atCheckMAC:
.LFB0:
	.loc 1 46 0
	@ args = 0, pretend = 0, frame = 0
	@ frame_needed = 0, uses_anonymous_args = 0
.LVL33:
	push	{r3, lr}
.LCFI3:
	.loc 1 48 0
	movs	r3, #40
	strb	r3, [r1, #2]
	.loc 1 49 0
	movs	r3, #84
	.loc 1 50 0
	mov	r0, r1
.LVL34:
	.loc 1 49 0
	strb	r3, [r1, #1]
	.loc 1 50 0
	bl	atCalcCrc
.LVL35:
	.loc 1 52 0
	movs	r0, #0
	pop	{r3, pc}
.LFE0:
	.size	atCheckMAC, .-atCheckMAC
	.section	.text.atCounter,"ax",%progbits
	.align	1
	.global	atCounter
	.syntax unified
	.thumb
	.thumb_func
	.fpu fpv4-sp-d16
	.type	atCounter, %function
atCounter:
.LFB1:
	.loc 1 60 0
	@ args = 0, pretend = 0, frame = 0
	@ frame_needed = 0, uses_anonymous_args = 0
.LVL36:
	push	{r3, lr}
.LCFI4:
	.loc 1 62 0
	movs	r3, #36
	strb	r3, [r1, #2]
	.loc 1 63 0
	movs	r3, #7
	.loc 1 64 0
	mov	r0, r1
.LVL37:
	.loc 1 63 0
	strb	r3, [r1, #1]
	.loc 1 64 0
	bl	atCalcCrc
.LVL38:
	.loc 1 66 0
	movs	r0, #0
	pop	{r3, pc}
.LFE1:
	.size	atCounter, .-atCounter
	.section	.text.atDeriveKey,"ax",%progbits
	.align	1
	.global	atDeriveKey
	.syntax unified
	.thumb
	.thumb_func
	.fpu fpv4-sp-d16
	.type	atDeriveKey, %function
atDeriveKey:
.LFB2:
	.loc 1 75 0
	@ args = 0, pretend = 0, frame = 0
	@ frame_needed = 0, uses_anonymous_args = 0
.LVL39:
	push	{r3, lr}
.LCFI5:
	.loc 1 77 0
	movs	r3, #28
	strb	r3, [r1, #2]
	.loc 1 81 0
	cbz	r2, .L22
	.loc 1 83 0
	movs	r3, #39
.L24:
	.loc 1 89 0
	mov	r0, r1
.LVL40:
	.loc 1 87 0
	strb	r3, [r1, #1]
	.loc 1 89 0
	bl	atCalcCrc
.LVL41:
	.loc 1 91 0
	movs	r0, #0
	pop	{r3, pc}
.LVL42:
.L22:
	.loc 1 87 0
	movs	r3, #7
	b	.L24
.LFE2:
	.size	atDeriveKey, .-atDeriveKey
	.section	.text.atECDH,"ax",%progbits
	.align	1
	.global	atECDH
	.syntax unified
	.thumb
	.thumb_func
	.fpu fpv4-sp-d16
	.type	atECDH, %function
atECDH:
.LFB3:
	.loc 1 99 0
	@ args = 0, pretend = 0, frame = 0
	@ frame_needed = 0, uses_anonymous_args = 0
.LVL43:
	push	{r3, lr}
.LCFI6:
	.loc 1 101 0
	movs	r3, #67
	strb	r3, [r1, #2]
	.loc 1 102 0
	movs	r3, #71
	.loc 1 103 0
	mov	r0, r1
.LVL44:
	.loc 1 102 0
	strb	r3, [r1, #1]
	.loc 1 103 0
	bl	atCalcCrc
.LVL45:
	.loc 1 105 0
	movs	r0, #0
	pop	{r3, pc}
.LFE3:
	.size	atECDH, .-atECDH
	.section	.text.atGenDig,"ax",%progbits
	.align	1
	.global	atGenDig
	.syntax unified
	.thumb
	.thumb_func
	.fpu fpv4-sp-d16
	.type	atGenDig, %function
atGenDig:
.LFB4:
	.loc 1 114 0
	@ args = 0, pretend = 0, frame = 0
	@ frame_needed = 0, uses_anonymous_args = 0
.LVL46:
	push	{r3, lr}
.LCFI7:
	.loc 1 116 0
	movs	r3, #21
	strb	r3, [r1, #2]
	.loc 1 118 0
	ldrb	r3, [r1, #3]	@ zero_extendqisi2
	cmp	r3, #3
	bne	.L27
	.loc 1 120 0
	movs	r3, #39
.L30:
	.loc 1 130 0
	mov	r0, r1
.LVL47:
	.loc 1 128 0
	strb	r3, [r1, #1]
	.loc 1 130 0
	bl	atCalcCrc
.LVL48:
	.loc 1 132 0
	movs	r0, #0
	pop	{r3, pc}
.LVL49:
.L27:
	.loc 1 122 0
	cbz	r2, .L29
	.loc 1 124 0
	movs	r3, #11
	b	.L30
.L29:
	.loc 1 128 0
	movs	r3, #7
	b	.L30
.LFE4:
	.size	atGenDig, .-atGenDig
	.section	.text.atGenKey,"ax",%progbits
	.align	1
	.global	atGenKey
	.syntax unified
	.thumb
	.thumb_func
	.fpu fpv4-sp-d16
	.type	atGenKey, %function
atGenKey:
.LFB5:
	.loc 1 140 0
	@ args = 0, pretend = 0, frame = 0
	@ frame_needed = 0, uses_anonymous_args = 0
.LVL50:
	push	{r3, lr}
.LCFI8:
	.loc 1 142 0
	movs	r3, #64
	strb	r3, [r1, #2]
	.loc 1 144 0
	ldrb	r3, [r1, #3]	@ zero_extendqisi2
	lsls	r3, r3, #27
	.loc 1 146 0
	ite	mi
	movmi	r3, #10
	.loc 1 150 0
	movpl	r3, #7
	.loc 1 152 0
	mov	r0, r1
.LVL51:
	.loc 1 150 0
	strb	r3, [r1, #1]
	.loc 1 152 0
	bl	atCalcCrc
.LVL52:
	.loc 1 154 0
	movs	r0, #0
	pop	{r3, pc}
.LFE5:
	.size	atGenKey, .-atGenKey
	.section	.text.atHMAC,"ax",%progbits
	.align	1
	.global	atHMAC
	.syntax unified
	.thumb
	.thumb_func
	.fpu fpv4-sp-d16
	.type	atHMAC, %function
atHMAC:
.LFB6:
	.loc 1 162 0
	@ args = 0, pretend = 0, frame = 0
	@ frame_needed = 0, uses_anonymous_args = 0
.LVL53:
	push	{r3, lr}
.LCFI9:
	.loc 1 164 0
	movs	r3, #17
	strb	r3, [r1, #2]
	.loc 1 165 0
	movs	r3, #7
	.loc 1 166 0
	mov	r0, r1
.LVL54:
	.loc 1 165 0
	strb	r3, [r1, #1]
	.loc 1 166 0
	bl	atCalcCrc
.LVL55:
	.loc 1 168 0
	movs	r0, #0
	pop	{r3, pc}
.LFE6:
	.size	atHMAC, .-atHMAC
	.section	.text.atInfo,"ax",%progbits
	.align	1
	.global	atInfo
	.syntax unified
	.thumb
	.thumb_func
	.fpu fpv4-sp-d16
	.type	atInfo, %function
atInfo:
.LFB7:
	.loc 1 176 0
	@ args = 0, pretend = 0, frame = 0
	@ frame_needed = 0, uses_anonymous_args = 0
.LVL56:
	push	{r3, lr}
.LCFI10:
	.loc 1 178 0
	movs	r3, #48
	strb	r3, [r1, #2]
	.loc 1 179 0
	movs	r3, #7
	.loc 1 180 0
	mov	r0, r1
.LVL57:
	.loc 1 179 0
	strb	r3, [r1, #1]
	.loc 1 180 0
	bl	atCalcCrc
.LVL58:
	.loc 1 182 0
	movs	r0, #0
	pop	{r3, pc}
.LFE7:
	.size	atInfo, .-atInfo
	.section	.text.atLock,"ax",%progbits
	.align	1
	.global	atLock
	.syntax unified
	.thumb
	.thumb_func
	.fpu fpv4-sp-d16
	.type	atLock, %function
atLock:
.LFB8:
	.loc 1 190 0
	@ args = 0, pretend = 0, frame = 0
	@ frame_needed = 0, uses_anonymous_args = 0
.LVL59:
	push	{r3, lr}
.LCFI11:
	.loc 1 192 0
	movs	r3, #23
	strb	r3, [r1, #2]
	.loc 1 193 0
	movs	r3, #7
	.loc 1 194 0
	mov	r0, r1
.LVL60:
	.loc 1 193 0
	strb	r3, [r1, #1]
	.loc 1 194 0
	bl	atCalcCrc
.LVL61:
	.loc 1 196 0
	movs	r0, #0
	pop	{r3, pc}
.LFE8:
	.size	atLock, .-atLock
	.section	.text.atMAC,"ax",%progbits
	.align	1
	.global	atMAC
	.syntax unified
	.thumb
	.thumb_func
	.fpu fpv4-sp-d16
	.type	atMAC, %function
atMAC:
.LFB9:
	.loc 1 204 0
	@ args = 0, pretend = 0, frame = 0
	@ frame_needed = 0, uses_anonymous_args = 0
.LVL62:
	push	{r3, lr}
.LCFI12:
	.loc 1 207 0
	movs	r3, #8
	strb	r3, [r1, #2]
	.loc 1 208 0
	ldrb	r3, [r1, #3]	@ zero_extendqisi2
	lsls	r3, r3, #31
	.loc 1 210 0
	ite	pl
	movpl	r3, #39
	.loc 1 214 0
	movmi	r3, #7
	.loc 1 216 0
	mov	r0, r1
.LVL63:
	.loc 1 214 0
	strb	r3, [r1, #1]
	.loc 1 216 0
	bl	atCalcCrc
.LVL64:
	.loc 1 218 0
	movs	r0, #0
	pop	{r3, pc}
.LFE9:
	.size	atMAC, .-atMAC
	.section	.text.atNonce,"ax",%progbits
	.align	1
	.global	atNonce
	.syntax unified
	.thumb
	.thumb_func
	.fpu fpv4-sp-d16
	.type	atNonce, %function
atNonce:
.LFB10:
	.loc 1 226 0
	@ args = 0, pretend = 0, frame = 0
	@ frame_needed = 0, uses_anonymous_args = 0
.LVL65:
	push	{r3, lr}
.LCFI13:
	.loc 1 229 0
	ldrb	r3, [r1, #3]	@ zero_extendqisi2
	and	r2, r3, #3
.LVL66:
	.loc 1 231 0
	movs	r0, #22
.LVL67:
	.loc 1 233 0
	cmp	r2, #1
	.loc 1 231 0
	strb	r0, [r1, #2]
	.loc 1 233 0
	bhi	.L43
	.loc 1 236 0
	movs	r3, #27
.L48:
	.loc 1 256 0
	mov	r0, r1
	.loc 1 249 0
	strb	r3, [r1, #1]
	.loc 1 256 0
	bl	atCalcCrc
.LVL68:
	.loc 1 257 0
	movs	r0, #0
.L45:
	.loc 1 258 0
	pop	{r3, pc}
.LVL69:
.L43:
	.loc 1 238 0
	cmp	r2, #3
	bne	.L47
	.loc 1 241 0
	lsls	r3, r3, #26
	.loc 1 244 0
	ite	mi
	movmi	r3, #71
	.loc 1 249 0
	movpl	r3, #39
	b	.L48
.L47:
	.loc 1 254 0
	movs	r0, #226
	b	.L45
.LFE10:
	.size	atNonce, .-atNonce
	.section	.text.atPause,"ax",%progbits
	.align	1
	.global	atPause
	.syntax unified
	.thumb
	.thumb_func
	.fpu fpv4-sp-d16
	.type	atPause, %function
atPause:
.LFB11:
	.loc 1 266 0
	@ args = 0, pretend = 0, frame = 0
	@ frame_needed = 0, uses_anonymous_args = 0
.LVL70:
	push	{r3, lr}
.LCFI14:
	.loc 1 268 0
	movs	r3, #1
	strb	r3, [r1, #2]
	.loc 1 269 0
	movs	r3, #7
	.loc 1 270 0
	mov	r0, r1
.LVL71:
	.loc 1 269 0
	strb	r3, [r1, #1]
	.loc 1 270 0
	bl	atCalcCrc
.LVL72:
	.loc 1 272 0
	movs	r0, #0
	pop	{r3, pc}
.LFE11:
	.size	atPause, .-atPause
	.section	.text.atPrivWrite,"ax",%progbits
	.align	1
	.global	atPrivWrite
	.syntax unified
	.thumb
	.thumb_func
	.fpu fpv4-sp-d16
	.type	atPrivWrite, %function
atPrivWrite:
.LFB12:
	.loc 1 280 0
	@ args = 0, pretend = 0, frame = 0
	@ frame_needed = 0, uses_anonymous_args = 0
.LVL73:
	push	{r3, lr}
.LCFI15:
	.loc 1 282 0
	movs	r3, #70
	strb	r3, [r1, #2]
	.loc 1 283 0
	movs	r3, #75
	.loc 1 284 0
	mov	r0, r1
.LVL74:
	.loc 1 283 0
	strb	r3, [r1, #1]
	.loc 1 284 0
	bl	atCalcCrc
.LVL75:
	.loc 1 286 0
	movs	r0, #0
	pop	{r3, pc}
.LFE12:
	.size	atPrivWrite, .-atPrivWrite
	.section	.text.atRandom,"ax",%progbits
	.align	1
	.global	atRandom
	.syntax unified
	.thumb
	.thumb_func
	.fpu fpv4-sp-d16
	.type	atRandom, %function
atRandom:
.LFB13:
	.loc 1 294 0
	@ args = 0, pretend = 0, frame = 0
	@ frame_needed = 0, uses_anonymous_args = 0
.LVL76:
	push	{r3, lr}
.LCFI16:
	.loc 1 296 0
	movs	r3, #27
	strb	r3, [r1, #2]
	.loc 1 297 0
	movs	r3, #7
	.loc 1 298 0
	mov	r0, r1
.LVL77:
	.loc 1 297 0
	strb	r3, [r1, #1]
	.loc 1 298 0
	bl	atCalcCrc
.LVL78:
	.loc 1 300 0
	movs	r0, #0
	pop	{r3, pc}
.LFE13:
	.size	atRandom, .-atRandom
	.section	.text.atRead,"ax",%progbits
	.align	1
	.global	atRead
	.syntax unified
	.thumb
	.thumb_func
	.fpu fpv4-sp-d16
	.type	atRead, %function
atRead:
.LFB14:
	.loc 1 308 0
	@ args = 0, pretend = 0, frame = 0
	@ frame_needed = 0, uses_anonymous_args = 0
.LVL79:
	push	{r3, lr}
.LCFI17:
	.loc 1 310 0
	movs	r3, #2
	strb	r3, [r1, #2]
	.loc 1 311 0
	movs	r3, #7
	.loc 1 312 0
	mov	r0, r1
.LVL80:
	.loc 1 311 0
	strb	r3, [r1, #1]
	.loc 1 312 0
	bl	atCalcCrc
.LVL81:
	.loc 1 314 0
	movs	r0, #0
	pop	{r3, pc}
.LFE14:
	.size	atRead, .-atRead
	.section	.text.atSecureBoot,"ax",%progbits
	.align	1
	.global	atSecureBoot
	.syntax unified
	.thumb
	.thumb_func
	.fpu fpv4-sp-d16
	.type	atSecureBoot, %function
atSecureBoot:
.LFB15:
	.loc 1 322 0
	@ args = 0, pretend = 0, frame = 0
	@ frame_needed = 0, uses_anonymous_args = 0
.LVL82:
	push	{r3, lr}
.LCFI18:
	.loc 1 323 0
	movs	r3, #128
	strb	r3, [r1, #2]
	.loc 1 324 0
	movs	r3, #7
	strb	r3, [r1, #1]
	.loc 1 327 0
	ldrb	r3, [r1, #3]	@ zero_extendqisi2
	and	r3, r3, #7
	cmp	r3, #6
	beq	.L55
	cmp	r3, #7
	beq	.L56
	cmp	r3, #5
	bne	.L65
.L56:
	.loc 1 331 0
	movs	r3, #103
.L66:
	.loc 1 342 0
	mov	r0, r1
.LVL83:
	.loc 1 335 0
	strb	r3, [r1, #1]
	.loc 1 342 0
	bl	atCalcCrc
.LVL84:
	.loc 1 343 0
	movs	r0, #0
.L54:
	.loc 1 344 0
	pop	{r3, pc}
.LVL85:
.L55:
	.loc 1 335 0
	movs	r3, #39
	b	.L66
.L65:
	.loc 1 339 0
	movs	r0, #226
.LVL86:
	b	.L54
.LFE15:
	.size	atSecureBoot, .-atSecureBoot
	.section	.text.atSHA,"ax",%progbits
	.align	1
	.global	atSHA
	.syntax unified
	.thumb
	.thumb_func
	.fpu fpv4-sp-d16
	.type	atSHA, %function
atSHA:
.LFB16:
	.loc 1 353 0
	@ args = 0, pretend = 0, frame = 0
	@ frame_needed = 0, uses_anonymous_args = 0
.LVL87:
	push	{r3, lr}
.LCFI19:
	.loc 1 355 0
	movs	r3, #71
	strb	r3, [r1, #2]
	.loc 1 357 0
	ldrb	r3, [r1, #3]	@ zero_extendqisi2
	and	r3, r3, #7
	subs	r3, r3, #1
	cmp	r3, #6
	bhi	.L68
	tbb	[pc, r3]
.LVL88:
.L70:
	.byte	(.L69-.L70)/2
	.byte	(.L69-.L70)/2
	.byte	(.L68-.L70)/2
	.byte	(.L68-.L70)/2
	.byte	(.L69-.L70)/2
	.byte	(.L68-.L70)/2
	.byte	(.L71-.L70)/2
	.p2align 1
.L68:
	.loc 1 362 0
	movs	r3, #7
.L73:
	.loc 1 366 0
	strb	r3, [r1, #1]
.LVL89:
.L72:
	.loc 1 387 0
	mov	r0, r1
	bl	atCalcCrc
.LVL90:
	.loc 1 389 0
	movs	r0, #0
	pop	{r3, pc}
.LVL91:
.L69:
	.loc 1 366 0
	ldrb	r3, [r1, #4]	@ zero_extendqisi2
	adds	r3, r3, #7
	b	.L73
.L71:
	.loc 1 381 0
	adds	r2, r2, #7
.LVL92:
	strb	r2, [r1, #1]
	.loc 1 382 0
	b	.L72
.LFE16:
	.size	atSHA, .-atSHA
	.section	.text.atSign,"ax",%progbits
	.align	1
	.global	atSign
	.syntax unified
	.thumb
	.thumb_func
	.fpu fpv4-sp-d16
	.type	atSign, %function
atSign:
.LFB17:
	.loc 1 397 0
	@ args = 0, pretend = 0, frame = 0
	@ frame_needed = 0, uses_anonymous_args = 0
.LVL93:
	push	{r3, lr}
.LCFI20:
	.loc 1 399 0
	movs	r3, #65
	strb	r3, [r1, #2]
	.loc 1 400 0
	movs	r3, #7
	.loc 1 401 0
	mov	r0, r1
.LVL94:
	.loc 1 400 0
	strb	r3, [r1, #1]
	.loc 1 401 0
	bl	atCalcCrc
.LVL95:
	.loc 1 403 0
	movs	r0, #0
	pop	{r3, pc}
.LFE17:
	.size	atSign, .-atSign
	.section	.text.atUpdateExtra,"ax",%progbits
	.align	1
	.global	atUpdateExtra
	.syntax unified
	.thumb
	.thumb_func
	.fpu fpv4-sp-d16
	.type	atUpdateExtra, %function
atUpdateExtra:
.LFB18:
	.loc 1 411 0
	@ args = 0, pretend = 0, frame = 0
	@ frame_needed = 0, uses_anonymous_args = 0
.LVL96:
	push	{r3, lr}
.LCFI21:
	.loc 1 413 0
	movs	r3, #32
	strb	r3, [r1, #2]
	.loc 1 414 0
	movs	r3, #7
	.loc 1 415 0
	mov	r0, r1
.LVL97:
	.loc 1 414 0
	strb	r3, [r1, #1]
	.loc 1 415 0
	bl	atCalcCrc
.LVL98:
	.loc 1 417 0
	movs	r0, #0
	pop	{r3, pc}
.LFE18:
	.size	atUpdateExtra, .-atUpdateExtra
	.section	.text.atVerify,"ax",%progbits
	.align	1
	.global	atVerify
	.syntax unified
	.thumb
	.thumb_func
	.fpu fpv4-sp-d16
	.type	atVerify, %function
atVerify:
.LFB19:
	.loc 1 425 0
	@ args = 0, pretend = 0, frame = 0
	@ frame_needed = 0, uses_anonymous_args = 0
.LVL99:
	push	{r3, lr}
.LCFI22:
	.loc 1 427 0
	movs	r3, #69
	strb	r3, [r1, #2]
	.loc 1 430 0
	ldrb	r3, [r1, #3]	@ zero_extendqisi2
	ands	r3, r3, #3
	beq	.L77
	cmp	r3, #2
	bls	.L78
	cmp	r3, #3
	beq	.L79
.L77:
	.loc 1 433 0
	movs	r3, #71
.L81:
	.loc 1 453 0
	mov	r0, r1
.LVL100:
	.loc 1 446 0
	strb	r3, [r1, #1]
	.loc 1 453 0
	bl	atCalcCrc
.LVL101:
	.loc 1 455 0
	movs	r0, #0
	pop	{r3, pc}
.LVL102:
.L78:
	.loc 1 437 0
	movs	r3, #135
	b	.L81
.L79:
	.loc 1 446 0
	movs	r3, #90
	b	.L81
.LFE19:
	.size	atVerify, .-atVerify
	.section	.text.atWrite,"ax",%progbits
	.align	1
	.global	atWrite
	.syntax unified
	.thumb
	.thumb_func
	.fpu fpv4-sp-d16
	.type	atWrite, %function
atWrite:
.LFB20:
	.loc 1 464 0
	@ args = 0, pretend = 0, frame = 0
	@ frame_needed = 0, uses_anonymous_args = 0
.LVL103:
	push	{r3, lr}
.LCFI23:
	.loc 1 466 0
	movs	r3, #18
	strb	r3, [r1, #2]
	.loc 1 468 0
	movs	r3, #7
	strb	r3, [r1, #1]
	.loc 1 469 0
	ldrsb	r3, [r1, #3]
	cmp	r3, #0
	.loc 1 471 0
	ite	lt
	movlt	r3, #39
	.loc 1 475 0
	movge	r3, #11
	strb	r3, [r1, #1]
	.loc 1 477 0
	cbz	r2, .L85
	.loc 1 479 0
	ldrb	r3, [r1, #1]	@ zero_extendqisi2
	adds	r3, r3, #32
	strb	r3, [r1, #1]
.L85:
	.loc 1 481 0
	mov	r0, r1
.LVL104:
	bl	atCalcCrc
.LVL105:
	.loc 1 483 0
	movs	r0, #0
	pop	{r3, pc}
.LFE20:
	.size	atWrite, .-atWrite
	.section	.text.atAES,"ax",%progbits
	.align	1
	.global	atAES
	.syntax unified
	.thumb
	.thumb_func
	.fpu fpv4-sp-d16
	.type	atAES, %function
atAES:
.LFB21:
	.loc 1 491 0
	@ args = 0, pretend = 0, frame = 0
	@ frame_needed = 0, uses_anonymous_args = 0
.LVL106:
	push	{r3, lr}
.LCFI24:
	.loc 1 493 0
	movs	r3, #81
	strb	r3, [r1, #2]
	.loc 1 494 0
	movs	r3, #7
	strb	r3, [r1, #1]
	.loc 1 496 0
	ldrb	r3, [r1, #3]	@ zero_extendqisi2
	and	r3, r3, #7
	cmp	r3, #3
	.loc 1 498 0
	ite	eq
	moveq	r3, #39
	.loc 1 502 0
	movne	r3, #23
	.loc 1 504 0
	mov	r0, r1
.LVL107:
	.loc 1 502 0
	strb	r3, [r1, #1]
	.loc 1 504 0
	bl	atCalcCrc
.LVL108:
	.loc 1 506 0
	movs	r0, #0
	pop	{r3, pc}
.LFE21:
	.size	atAES, .-atAES
	.section	.text.atSelfTest,"ax",%progbits
	.align	1
	.global	atSelfTest
	.syntax unified
	.thumb
	.thumb_func
	.fpu fpv4-sp-d16
	.type	atSelfTest, %function
atSelfTest:
.LFB22:
	.loc 1 514 0
	@ args = 0, pretend = 0, frame = 0
	@ frame_needed = 0, uses_anonymous_args = 0
.LVL109:
	push	{r3, lr}
.LCFI25:
	.loc 1 516 0
	movs	r3, #119
	strb	r3, [r1, #2]
	.loc 1 517 0
	movs	r3, #7
	.loc 1 518 0
	mov	r0, r1
.LVL110:
	.loc 1 517 0
	strb	r3, [r1, #1]
	.loc 1 518 0
	bl	atCalcCrc
.LVL111:
	.loc 1 520 0
	movs	r0, #0
	pop	{r3, pc}
.LFE22:
	.size	atSelfTest, .-atSelfTest
	.section	.text.atKDF,"ax",%progbits
	.align	1
	.global	atKDF
	.syntax unified
	.thumb
	.thumb_func
	.fpu fpv4-sp-d16
	.type	atKDF, %function
atKDF:
.LFB23:
	.loc 1 531 0
	@ args = 0, pretend = 0, frame = 0
	@ frame_needed = 0, uses_anonymous_args = 0
.LVL112:
	push	{r3, lr}
.LCFI26:
	.loc 1 533 0
	movs	r3, #86
	strb	r3, [r1, #2]
	.loc 1 536 0
	ldrb	r3, [r1, #3]	@ zero_extendqisi2
	and	r3, r3, #96
	cmp	r3, #32
	.loc 1 544 0
	itet	ne
	ldrbne	r3, [r1, #9]	@ zero_extendqisi2
	.loc 1 539 0
	moveq	r3, #27
	.loc 1 544 0
	addne	r3, r3, #11
	.loc 1 546 0
	mov	r0, r1
.LVL113:
	.loc 1 544 0
	strb	r3, [r1, #1]
	.loc 1 546 0
	bl	atCalcCrc
.LVL114:
	.loc 1 548 0
	movs	r0, #0
	pop	{r3, pc}
.LFE23:
	.size	atKDF, .-atKDF
	.section	.text.atCheckCrc,"ax",%progbits
	.align	1
	.global	atCheckCrc
	.syntax unified
	.thumb
	.thumb_func
	.fpu fpv4-sp-d16
	.type	atCheckCrc, %function
atCheckCrc:
.LFB29:
	.loc 1 666 0
	@ args = 0, pretend = 0, frame = 8
	@ frame_needed = 0, uses_anonymous_args = 0
.LVL115:
	push	{r0, r1, r2, r4, r5, lr}
.LCFI27:
	.loc 1 668 0
	ldrb	r4, [r0]	@ zero_extendqisi2
.LVL116:
	.loc 1 670 0
	subs	r4, r4, #2
.LVL117:
	.loc 1 666 0
	mov	r5, r0
	.loc 1 671 0
	uxtb	r4, r4
.LVL118:
	add	r2, sp, #4
	mov	r1, r0
	mov	r0, r4
.LVL119:
	bl	atCRC
.LVL120:
	.loc 1 673 0
	ldrb	r2, [sp, #4]	@ zero_extendqisi2
	ldrb	r3, [r5, r4]	@ zero_extendqisi2
	cmp	r2, r3
	bne	.L101
	.loc 1 673 0 is_stmt 0 discriminator 1
	add	r4, r4, r5
	ldrb	r0, [sp, #5]	@ zero_extendqisi2
	ldrb	r3, [r4, #1]	@ zero_extendqisi2
	cmp	r0, r3
	ite	ne
	movne	r0, #229
	moveq	r0, #0
.L100:
	.loc 1 674 0 is_stmt 1 discriminator 6
	add	sp, sp, #12
.LCFI28:
	@ sp needed
	pop	{r4, r5, pc}
.LVL121:
.L101:
.LCFI29:
	.loc 1 673 0
	movs	r0, #229
	b	.L100
.LFE29:
	.size	atCheckCrc, .-atCheckCrc
	.section	.text.atIsSHAFamily,"ax",%progbits
	.align	1
	.global	atIsSHAFamily
	.syntax unified
	.thumb
	.thumb_func
	.fpu fpv4-sp-d16
	.type	atIsSHAFamily, %function
atIsSHAFamily:
.LFB30:
	.loc 1 683 0
	@ args = 0, pretend = 0, frame = 0
	@ frame_needed = 0, uses_anonymous_args = 0
	@ link register save eliminated.
.LVL122:
	.loc 1 697 0
	cmp	r0, #3
	ite	hi
	movhi	r0, #0
.LVL123:
	movls	r0, #1
	bx	lr
.LFE30:
	.size	atIsSHAFamily, .-atIsSHAFamily
	.section	.text.atIsECCFamily,"ax",%progbits
	.align	1
	.global	atIsECCFamily
	.syntax unified
	.thumb
	.thumb_func
	.fpu fpv4-sp-d16
	.type	atIsECCFamily, %function
atIsECCFamily:
.LFB31:
	.loc 1 704 0
	@ args = 0, pretend = 0, frame = 0
	@ frame_needed = 0, uses_anonymous_args = 0
	@ link register save eliminated.
.LVL124:
	.loc 1 705 0
	subs	r0, r0, #1
.LVL125:
	.loc 1 716 0
	cmp	r0, #2
	ite	hi
	movhi	r0, #0
	movls	r0, #1
	bx	lr
.LFE31:
	.size	atIsECCFamily, .-atIsECCFamily
	.section	.text.isATCAError,"ax",%progbits
	.align	1
	.global	isATCAError
	.syntax unified
	.thumb
	.thumb_func
	.fpu fpv4-sp-d16
	.type	isATCAError, %function
isATCAError:
.LFB32:
	.loc 1 724 0
	@ args = 0, pretend = 0, frame = 0
	@ frame_needed = 0, uses_anonymous_args = 0
	@ link register save eliminated.
.LVL126:
	.loc 1 725 0
	ldrb	r3, [r0]	@ zero_extendqisi2
	cmp	r3, #4
	bne	.L125
	.loc 1 727 0
	ldrb	r3, [r0, #1]	@ zero_extendqisi2
	cmp	r3, #7
	beq	.L114
	bhi	.L115
	cmp	r3, #1
	beq	.L116
	bcc	.L125
	cmp	r3, #3
	beq	.L117
	cmp	r3, #5
	beq	.L118
.L113:
	.loc 1 755 0
	movs	r0, #225
.LVL127:
	bx	lr
.LVL128:
.L115:
	.loc 1 727 0
	cmp	r3, #15
	beq	.L119
	bhi	.L120
	cmp	r3, #8
	bne	.L113
	.loc 1 744 0
	movs	r0, #250
.LVL129:
	bx	lr
.LVL130:
.L120:
	.loc 1 727 0
	cmp	r3, #17
	beq	.L122
	cmp	r3, #255
	bne	.L113
	.loc 1 752 0
	movs	r0, #212
.LVL131:
	bx	lr
.LVL132:
.L116:
	.loc 1 732 0
	movs	r0, #209
.LVL133:
	bx	lr
.LVL134:
.L117:
	.loc 1 735 0
	movs	r0, #210
.LVL135:
	bx	lr
.LVL136:
.L118:
	.loc 1 738 0
	movs	r0, #214
.LVL137:
	bx	lr
.LVL138:
.L114:
	.loc 1 741 0
	movs	r0, #215
.LVL139:
	bx	lr
.LVL140:
.L119:
	.loc 1 746 0
	movs	r0, #244
.LVL141:
	bx	lr
.LVL142:
.L122:
	.loc 1 749 0
	movs	r0, #243
.LVL143:
	bx	lr
.LVL144:
.L125:
	.loc 1 730 0
	movs	r0, #0
.LVL145:
	.loc 1 763 0
	bx	lr
.LFE32:
	.size	isATCAError, .-isATCAError
	.section	.debug_frame,"",%progbits
.Lframe0:
	.4byte	.LECIE0-.LSCIE0
.LSCIE0:
	.4byte	0xffffffff
	.byte	0x3
	.ascii	"\000"
	.uleb128 0x1
	.sleb128 -4
	.uleb128 0xe
	.byte	0xc
	.uleb128 0xd
	.uleb128 0
	.align	2
.LECIE0:
.LSFDE0:
	.4byte	.LEFDE0-.LASFDE0
.LASFDE0:
	.4byte	.Lframe0
	.4byte	.LFB24
	.4byte	.LFE24-.LFB24
	.align	2
.LEFDE0:
.LSFDE2:
	.4byte	.LEFDE2-.LASFDE2
.LASFDE2:
	.4byte	.Lframe0
	.4byte	.LFB25
	.4byte	.LFE25-.LFB25
	.byte	0x4
	.4byte	.LCFI0-.LFB25
	.byte	0xe
	.uleb128 0x10
	.byte	0x83
	.uleb128 0x4
	.byte	0x84
	.uleb128 0x3
	.byte	0x85
	.uleb128 0x2
	.byte	0x8e
	.uleb128 0x1
	.align	2
.LEFDE2:
.LSFDE4:
	.4byte	.LEFDE4-.LASFDE4
.LASFDE4:
	.4byte	.Lframe0
	.4byte	.LFB26
	.4byte	.LFE26-.LFB26
	.byte	0x4
	.4byte	.LCFI1-.LFB26
	.byte	0xe
	.uleb128 0x8
	.byte	0x84
	.uleb128 0x2
	.byte	0x8e
	.uleb128 0x1
	.align	2
.LEFDE4:
.LSFDE6:
	.4byte	.LEFDE6-.LASFDE6
.LASFDE6:
	.4byte	.Lframe0
	.4byte	.LFB27
	.4byte	.LFE27-.LFB27
	.byte	0x4
	.4byte	.LCFI2-.LFB27
	.byte	0xe
	.uleb128 0x14
	.byte	0x84
	.uleb128 0x5
	.byte	0x85
	.uleb128 0x4
	.byte	0x86
	.uleb128 0x3
	.byte	0x87
	.uleb128 0x2
	.byte	0x8e
	.uleb128 0x1
	.align	2
.LEFDE6:
.LSFDE8:
	.4byte	.LEFDE8-.LASFDE8
.LASFDE8:
	.4byte	.Lframe0
	.4byte	.LFB28
	.4byte	.LFE28-.LFB28
	.align	2
.LEFDE8:
.LSFDE10:
	.4byte	.LEFDE10-.LASFDE10
.LASFDE10:
	.4byte	.Lframe0
	.4byte	.LFB0
	.4byte	.LFE0-.LFB0
	.byte	0x4
	.4byte	.LCFI3-.LFB0
	.byte	0xe
	.uleb128 0x8
	.byte	0x83
	.uleb128 0x2
	.byte	0x8e
	.uleb128 0x1
	.align	2
.LEFDE10:
.LSFDE12:
	.4byte	.LEFDE12-.LASFDE12
.LASFDE12:
	.4byte	.Lframe0
	.4byte	.LFB1
	.4byte	.LFE1-.LFB1
	.byte	0x4
	.4byte	.LCFI4-.LFB1
	.byte	0xe
	.uleb128 0x8
	.byte	0x83
	.uleb128 0x2
	.byte	0x8e
	.uleb128 0x1
	.align	2
.LEFDE12:
.LSFDE14:
	.4byte	.LEFDE14-.LASFDE14
.LASFDE14:
	.4byte	.Lframe0
	.4byte	.LFB2
	.4byte	.LFE2-.LFB2
	.byte	0x4
	.4byte	.LCFI5-.LFB2
	.byte	0xe
	.uleb128 0x8
	.byte	0x83
	.uleb128 0x2
	.byte	0x8e
	.uleb128 0x1
	.align	2
.LEFDE14:
.LSFDE16:
	.4byte	.LEFDE16-.LASFDE16
.LASFDE16:
	.4byte	.Lframe0
	.4byte	.LFB3
	.4byte	.LFE3-.LFB3
	.byte	0x4
	.4byte	.LCFI6-.LFB3
	.byte	0xe
	.uleb128 0x8
	.byte	0x83
	.uleb128 0x2
	.byte	0x8e
	.uleb128 0x1
	.align	2
.LEFDE16:
.LSFDE18:
	.4byte	.LEFDE18-.LASFDE18
.LASFDE18:
	.4byte	.Lframe0
	.4byte	.LFB4
	.4byte	.LFE4-.LFB4
	.byte	0x4
	.4byte	.LCFI7-.LFB4
	.byte	0xe
	.uleb128 0x8
	.byte	0x83
	.uleb128 0x2
	.byte	0x8e
	.uleb128 0x1
	.align	2
.LEFDE18:
.LSFDE20:
	.4byte	.LEFDE20-.LASFDE20
.LASFDE20:
	.4byte	.Lframe0
	.4byte	.LFB5
	.4byte	.LFE5-.LFB5
	.byte	0x4
	.4byte	.LCFI8-.LFB5
	.byte	0xe
	.uleb128 0x8
	.byte	0x83
	.uleb128 0x2
	.byte	0x8e
	.uleb128 0x1
	.align	2
.LEFDE20:
.LSFDE22:
	.4byte	.LEFDE22-.LASFDE22
.LASFDE22:
	.4byte	.Lframe0
	.4byte	.LFB6
	.4byte	.LFE6-.LFB6
	.byte	0x4
	.4byte	.LCFI9-.LFB6
	.byte	0xe
	.uleb128 0x8
	.byte	0x83
	.uleb128 0x2
	.byte	0x8e
	.uleb128 0x1
	.align	2
.LEFDE22:
.LSFDE24:
	.4byte	.LEFDE24-.LASFDE24
.LASFDE24:
	.4byte	.Lframe0
	.4byte	.LFB7
	.4byte	.LFE7-.LFB7
	.byte	0x4
	.4byte	.LCFI10-.LFB7
	.byte	0xe
	.uleb128 0x8
	.byte	0x83
	.uleb128 0x2
	.byte	0x8e
	.uleb128 0x1
	.align	2
.LEFDE24:
.LSFDE26:
	.4byte	.LEFDE26-.LASFDE26
.LASFDE26:
	.4byte	.Lframe0
	.4byte	.LFB8
	.4byte	.LFE8-.LFB8
	.byte	0x4
	.4byte	.LCFI11-.LFB8
	.byte	0xe
	.uleb128 0x8
	.byte	0x83
	.uleb128 0x2
	.byte	0x8e
	.uleb128 0x1
	.align	2
.LEFDE26:
.LSFDE28:
	.4byte	.LEFDE28-.LASFDE28
.LASFDE28:
	.4byte	.Lframe0
	.4byte	.LFB9
	.4byte	.LFE9-.LFB9
	.byte	0x4
	.4byte	.LCFI12-.LFB9
	.byte	0xe
	.uleb128 0x8
	.byte	0x83
	.uleb128 0x2
	.byte	0x8e
	.uleb128 0x1
	.align	2
.LEFDE28:
.LSFDE30:
	.4byte	.LEFDE30-.LASFDE30
.LASFDE30:
	.4byte	.Lframe0
	.4byte	.LFB10
	.4byte	.LFE10-.LFB10
	.byte	0x4
	.4byte	.LCFI13-.LFB10
	.byte	0xe
	.uleb128 0x8
	.byte	0x83
	.uleb128 0x2
	.byte	0x8e
	.uleb128 0x1
	.align	2
.LEFDE30:
.LSFDE32:
	.4byte	.LEFDE32-.LASFDE32
.LASFDE32:
	.4byte	.Lframe0
	.4byte	.LFB11
	.4byte	.LFE11-.LFB11
	.byte	0x4
	.4byte	.LCFI14-.LFB11
	.byte	0xe
	.uleb128 0x8
	.byte	0x83
	.uleb128 0x2
	.byte	0x8e
	.uleb128 0x1
	.align	2
.LEFDE32:
.LSFDE34:
	.4byte	.LEFDE34-.LASFDE34
.LASFDE34:
	.4byte	.Lframe0
	.4byte	.LFB12
	.4byte	.LFE12-.LFB12
	.byte	0x4
	.4byte	.LCFI15-.LFB12
	.byte	0xe
	.uleb128 0x8
	.byte	0x83
	.uleb128 0x2
	.byte	0x8e
	.uleb128 0x1
	.align	2
.LEFDE34:
.LSFDE36:
	.4byte	.LEFDE36-.LASFDE36
.LASFDE36:
	.4byte	.Lframe0
	.4byte	.LFB13
	.4byte	.LFE13-.LFB13
	.byte	0x4
	.4byte	.LCFI16-.LFB13
	.byte	0xe
	.uleb128 0x8
	.byte	0x83
	.uleb128 0x2
	.byte	0x8e
	.uleb128 0x1
	.align	2
.LEFDE36:
.LSFDE38:
	.4byte	.LEFDE38-.LASFDE38
.LASFDE38:
	.4byte	.Lframe0
	.4byte	.LFB14
	.4byte	.LFE14-.LFB14
	.byte	0x4
	.4byte	.LCFI17-.LFB14
	.byte	0xe
	.uleb128 0x8
	.byte	0x83
	.uleb128 0x2
	.byte	0x8e
	.uleb128 0x1
	.align	2
.LEFDE38:
.LSFDE40:
	.4byte	.LEFDE40-.LASFDE40
.LASFDE40:
	.4byte	.Lframe0
	.4byte	.LFB15
	.4byte	.LFE15-.LFB15
	.byte	0x4
	.4byte	.LCFI18-.LFB15
	.byte	0xe
	.uleb128 0x8
	.byte	0x83
	.uleb128 0x2
	.byte	0x8e
	.uleb128 0x1
	.align	2
.LEFDE40:
.LSFDE42:
	.4byte	.LEFDE42-.LASFDE42
.LASFDE42:
	.4byte	.Lframe0
	.4byte	.LFB16
	.4byte	.LFE16-.LFB16
	.byte	0x4
	.4byte	.LCFI19-.LFB16
	.byte	0xe
	.uleb128 0x8
	.byte	0x83
	.uleb128 0x2
	.byte	0x8e
	.uleb128 0x1
	.align	2
.LEFDE42:
.LSFDE44:
	.4byte	.LEFDE44-.LASFDE44
.LASFDE44:
	.4byte	.Lframe0
	.4byte	.LFB17
	.4byte	.LFE17-.LFB17
	.byte	0x4
	.4byte	.LCFI20-.LFB17
	.byte	0xe
	.uleb128 0x8
	.byte	0x83
	.uleb128 0x2
	.byte	0x8e
	.uleb128 0x1
	.align	2
.LEFDE44:
.LSFDE46:
	.4byte	.LEFDE46-.LASFDE46
.LASFDE46:
	.4byte	.Lframe0
	.4byte	.LFB18
	.4byte	.LFE18-.LFB18
	.byte	0x4
	.4byte	.LCFI21-.LFB18
	.byte	0xe
	.uleb128 0x8
	.byte	0x83
	.uleb128 0x2
	.byte	0x8e
	.uleb128 0x1
	.align	2
.LEFDE46:
.LSFDE48:
	.4byte	.LEFDE48-.LASFDE48
.LASFDE48:
	.4byte	.Lframe0
	.4byte	.LFB19
	.4byte	.LFE19-.LFB19
	.byte	0x4
	.4byte	.LCFI22-.LFB19
	.byte	0xe
	.uleb128 0x8
	.byte	0x83
	.uleb128 0x2
	.byte	0x8e
	.uleb128 0x1
	.align	2
.LEFDE48:
.LSFDE50:
	.4byte	.LEFDE50-.LASFDE50
.LASFDE50:
	.4byte	.Lframe0
	.4byte	.LFB20
	.4byte	.LFE20-.LFB20
	.byte	0x4
	.4byte	.LCFI23-.LFB20
	.byte	0xe
	.uleb128 0x8
	.byte	0x83
	.uleb128 0x2
	.byte	0x8e
	.uleb128 0x1
	.align	2
.LEFDE50:
.LSFDE52:
	.4byte	.LEFDE52-.LASFDE52
.LASFDE52:
	.4byte	.Lframe0
	.4byte	.LFB21
	.4byte	.LFE21-.LFB21
	.byte	0x4
	.4byte	.LCFI24-.LFB21
	.byte	0xe
	.uleb128 0x8
	.byte	0x83
	.uleb128 0x2
	.byte	0x8e
	.uleb128 0x1
	.align	2
.LEFDE52:
.LSFDE54:
	.4byte	.LEFDE54-.LASFDE54
.LASFDE54:
	.4byte	.Lframe0
	.4byte	.LFB22
	.4byte	.LFE22-.LFB22
	.byte	0x4
	.4byte	.LCFI25-.LFB22
	.byte	0xe
	.uleb128 0x8
	.byte	0x83
	.uleb128 0x2
	.byte	0x8e
	.uleb128 0x1
	.align	2
.LEFDE54:
.LSFDE56:
	.4byte	.LEFDE56-.LASFDE56
.LASFDE56:
	.4byte	.Lframe0
	.4byte	.LFB23
	.4byte	.LFE23-.LFB23
	.byte	0x4
	.4byte	.LCFI26-.LFB23
	.byte	0xe
	.uleb128 0x8
	.byte	0x83
	.uleb128 0x2
	.byte	0x8e
	.uleb128 0x1
	.align	2
.LEFDE56:
.LSFDE58:
	.4byte	.LEFDE58-.LASFDE58
.LASFDE58:
	.4byte	.Lframe0
	.4byte	.LFB29
	.4byte	.LFE29-.LFB29
	.byte	0x4
	.4byte	.LCFI27-.LFB29
	.byte	0xe
	.uleb128 0x18
	.byte	0x84
	.uleb128 0x3
	.byte	0x85
	.uleb128 0x2
	.byte	0x8e
	.uleb128 0x1
	.byte	0x4
	.4byte	.LCFI28-.LCFI27
	.byte	0xa
	.byte	0xe
	.uleb128 0xc
	.byte	0x4
	.4byte	.LCFI29-.LCFI28
	.byte	0xb
	.align	2
.LEFDE58:
.LSFDE60:
	.4byte	.LEFDE60-.LASFDE60
.LASFDE60:
	.4byte	.Lframe0
	.4byte	.LFB30
	.4byte	.LFE30-.LFB30
	.align	2
.LEFDE60:
.LSFDE62:
	.4byte	.LEFDE62-.LASFDE62
.LASFDE62:
	.4byte	.Lframe0
	.4byte	.LFB31
	.4byte	.LFE31-.LFB31
	.align	2
.LEFDE62:
.LSFDE64:
	.4byte	.LEFDE64-.LASFDE64
.LASFDE64:
	.4byte	.Lframe0
	.4byte	.LFB32
	.4byte	.LFE32-.LFB32
	.align	2
.LEFDE64:
	.text
.Letext0:
	.file 2 "C:/Program Files/SEGGER/SEGGER Embedded Studio for ARM 3.40/include/__crossworks.h"
	.file 3 "C:/Program Files/SEGGER/SEGGER Embedded Studio for ARM 3.40/include/stdlib.h"
	.file 4 "C:/Program Files/SEGGER/SEGGER Embedded Studio for ARM 3.40/include/stdint.h"
	.file 5 "C:\\localrep\\ATEC608A_test\\nRF5_SDK_15.3.0_59ac345\\examples\\iot\\misc\\iot_timer\\cryptoauthlib\\lib\\atca_status.h"
	.file 6 "C:\\localrep\\ATEC608A_test\\nRF5_SDK_15.3.0_59ac345\\examples\\iot\\misc\\iot_timer\\cryptoauthlib\\lib\\atca_devtypes.h"
	.file 7 "C:\\localrep\\ATEC608A_test\\nRF5_SDK_15.3.0_59ac345\\examples\\iot\\misc\\iot_timer\\cryptoauthlib\\lib\\atca_command.h"